; ModuleID = 'source-C-CXX/46/1589.c'
source_filename = "source-C-CXX/46/1589.c"
target datalayout = "e-m:e-p270:32:32-p271:32:32-p272:64:64-i64:64-f80:128-n8:16:32:64-S128"
target triple = "x86_64-pc-linux-gnu"

@.str = private unnamed_addr constant [3 x i8] c"%d\00", align 1
@.str.1 = private unnamed_addr constant [4 x i8] c"%d \00", align 1

; Function Attrs: nofree nounwind sspstrong uwtable
define dso_local i32 @main() local_unnamed_addr #0 {
  %1 = alloca i32, align 4
  %2 = bitcast i32* %1 to i8*
  call void @llvm.lifetime.start.p0i8(i64 4, i8* nonnull %2) #4
  %3 = call i32 (i8*, ...) @__isoc99_scanf(i8* getelementptr inbounds ([3 x i8], [3 x i8]* @.str, i64 0, i64 0), i32* nonnull %1)
  %4 = load i32, i32* %1, align 4, !tbaa !5
  %5 = sext i32 %4 to i64
  %6 = shl nsw i64 %5, 2
  %7 = call noalias align 16 i8* @malloc(i64 %6) #4
  %8 = bitcast i8* %7 to i32*
  %9 = call noalias align 16 i8* @malloc(i64 %6) #4
  %10 = bitcast i8* %9 to i32*
  %11 = icmp sgt i32 %4, 0
  br i1 %11, label %14, label %56

12:                                               ; preds = %14
  %13 = icmp sgt i32 %20, 0
  br i1 %13, label %29, label %56

14:                                               ; preds = %0, %14
  %15 = phi i64 [ %25, %14 ], [ 0, %0 ]
  %16 = phi i32 [ %26, %14 ], [ 0, %0 ]
  %17 = getelementptr inbounds i32, i32* %8, i64 %15
  %18 = call i32 (i8*, ...) @__isoc99_scanf(i8* getelementptr inbounds ([3 x i8], [3 x i8]* @.str, i64 0, i64 0), i32* %17)
  %19 = load i32, i32* %17, align 4, !tbaa !5
  %20 = load i32, i32* %1, align 4, !tbaa !5
  %21 = xor i32 %16, -1
  %22 = add i32 %20, %21
  %23 = sext i32 %22 to i64
  %24 = getelementptr inbounds i32, i32* %10, i64 %23
  store i32 %19, i32* %24, align 4, !tbaa !5
  %25 = add nuw nsw i64 %15, 1
  %26 = add nuw nsw i32 %16, 1
  %27 = sext i32 %20 to i64
  %28 = icmp slt i64 %25, %27
  br i1 %28, label %14, label %12, !llvm.loop !9

29:                                               ; preds = %12, %51
  %30 = phi i32 [ %52, %51 ], [ %20, %12 ]
  %31 = phi i64 [ %53, %51 ], [ 0, %12 ]
  %32 = add nsw i32 %30, -1
  %33 = sext i32 %32 to i64
  %34 = icmp slt i64 %31, %33
  br i1 %34, label %35, label %41

35:                                               ; preds = %29
  %36 = getelementptr inbounds i32, i32* %10, i64 %31
  %37 = load i32, i32* %36, align 4, !tbaa !5
  %38 = call i32 (i8*, ...) @printf(i8* nonnull dereferenceable(1) getelementptr inbounds ([4 x i8], [4 x i8]* @.str.1, i64 0, i64 0), i32 %37)
  %39 = load i32, i32* %1, align 4, !tbaa !5
  %40 = add nsw i32 %39, -1
  br label %41

41:                                               ; preds = %35, %29
  %42 = phi i32 [ %40, %35 ], [ %32, %29 ]
  %43 = phi i32 [ %39, %35 ], [ %30, %29 ]
  %44 = zext i32 %42 to i64
  %45 = icmp eq i64 %31, %44
  br i1 %45, label %46, label %51

46:                                               ; preds = %41
  %47 = getelementptr inbounds i32, i32* %10, i64 %31
  %48 = load i32, i32* %47, align 4, !tbaa !5
  %49 = call i32 (i8*, ...) @printf(i8* nonnull dereferenceable(1) getelementptr inbounds ([3 x i8], [3 x i8]* @.str, i64 0, i64 0), i32 %48)
  %50 = load i32, i32* %1, align 4, !tbaa !5
  br label %51

51:                                               ; preds = %41, %46
  %52 = phi i32 [ %43, %41 ], [ %50, %46 ]
  %53 = add nuw nsw i64 %31, 1
  %54 = sext i32 %52 to i64
  %55 = icmp slt i64 %53, %54
  br i1 %55, label %29, label %56, !llvm.loop !11

56:                                               ; preds = %51, %0, %12
  call void @llvm.lifetime.end.p0i8(i64 4, i8* nonnull %2) #4
  ret i32 0
}

; Function Attrs: argmemonly mustprogress nofree nosync nounwind willreturn
declare void @llvm.lifetime.start.p0i8(i64 immarg, i8* nocapture) #1

; Function Attrs: nofree nounwind
declare noundef i32 @__isoc99_scanf(i8* nocapture noundef readonly, ...) local_unnamed_addr #2

; Function Attrs: inaccessiblememonly mustprogress nofree nounwind willreturn
declare noalias noundef align 16 i8* @malloc(i64 noundef) local_unnamed_addr #3

; Function Attrs: nofree nounwind
declare noundef i32 @printf(i8* nocapture noundef readonly, ...) local_unnamed_addr #2

; Function Attrs: argmemonly mustprogress nofree nosync nounwind willreturn
declare void @llvm.lifetime.end.p0i8(i64 immarg, i8* nocapture) #1


!llvm.module.flags = !{!0, !1, !2, !3}
!llvm.ident = !{!4}

!0 = !{i32 1, !"wchar_size", i32 4}
!1 = !{i32 7, !"PIC Level", i32 2}
!2 = !{i32 7, !"PIE Level", i32 2}
!3 = !{i32 7, !"uwtable", i32 1}
!4 = !{!"clang version 13.0.0"}
!5 = !{!6, !6, i64 0}
!6 = !{!"int", !7, i64 0}
!7 = !{!"omnipotent char", !8, i64 0}
!8 = !{!"Simple C/C++ TBAA"}
!9 = distinct !{!9, !10}
!10 = !{!"llvm.loop.mustprogress"}
!11 = distinct !{!11, !10}
